target datalayout = "e-m:e-p270:32:32-p271:32:32-p272:64:64-i64:64-i128:128-f80:128-n8:16:32:64-S128"
target triple = "x86_64-pc-linux-gnu"

%struct.varattrib_1b = type { i8, [0 x i8] }
%struct.varattrib_1b_e = type { i8, i8, [0 x i8] }
%struct.anon = type { i32, [0 x i8] }

; Function Attrs: nounwind uwtable
define internal zeroext i1 @array_get_isnull(ptr noundef %0, i32 noundef %1) #0 {
  %3 = alloca i1, align 1
  %4 = alloca ptr, align 8
  %5 = alloca i32, align 4
  store ptr %0, ptr %4, align 8
  store i32 %1, ptr %5, align 4
  %6 = load ptr, ptr %4, align 8
  %7 = icmp eq ptr %6, null
  br i1 %7, label %8, label %9

8:                                                ; preds = %2
  store i1 false, ptr %3, align 1
  br label %24

9:                                                ; preds = %2
  %10 = load ptr, ptr %4, align 8
  %11 = load i32, ptr %5, align 4
  %12 = sdiv i32 %11, 8
  %13 = sext i32 %12 to i64
  %14 = getelementptr inbounds i8, ptr %10, i64 %13
  %15 = load i8, ptr %14, align 1
  %16 = zext i8 %15 to i32
  %17 = load i32, ptr %5, align 4
  %18 = srem i32 %17, 8
  %19 = shl i32 1, %18
  %20 = and i32 %16, %19
  %21 = icmp ne i32 %20, 0
  br i1 %21, label %22, label %23

22:                                               ; preds = %9
  store i1 false, ptr %3, align 1
  br label %24

23:                                               ; preds = %9
  store i1 true, ptr %3, align 1
  br label %24

24:                                               ; preds = %23, %22, %8
  %25 = load i1, ptr %3, align 1
  ret i1 %25
}

; Function Attrs: nounwind uwtable
define internal i32 @array_slice_size(ptr noundef %0, ptr noundef %1, i32 noundef %2, ptr noundef %3, ptr noundef %4, ptr noundef %5, ptr noundef %6, i32 noundef %7, i1 noundef zeroext %8, i8 noundef signext %9) #0 {
  %11 = alloca i32, align 4
  %12 = alloca ptr, align 8
  %13 = alloca ptr, align 8
  %14 = alloca i32, align 4
  %15 = alloca ptr, align 8
  %16 = alloca ptr, align 8
  %17 = alloca ptr, align 8
  %18 = alloca ptr, align 8
  %19 = alloca i32, align 4
  %20 = alloca i8, align 1
  %21 = alloca i8, align 1
  %22 = alloca i32, align 4
  %23 = alloca [6 x i32], align 16
  %24 = alloca [6 x i32], align 16
  %25 = alloca [6 x i32], align 16
  %26 = alloca [6 x i32], align 16
  %27 = alloca ptr, align 8
  %28 = alloca i32, align 4
  %29 = alloca i32, align 4
  %30 = alloca i32, align 4
  %31 = alloca i32, align 4
  %32 = alloca i32, align 4
  store ptr %0, ptr %12, align 8
  store ptr %1, ptr %13, align 8
  store i32 %2, ptr %14, align 4
  store ptr %3, ptr %15, align 8
  store ptr %4, ptr %16, align 8
  store ptr %5, ptr %17, align 8
  store ptr %6, ptr %18, align 8
  store i32 %7, ptr %19, align 4
  %33 = zext i1 %8 to i8
  store i8 %33, ptr %20, align 1
  store i8 %9, ptr %21, align 1
  call void @llvm.lifetime.start.p0(i64 4, ptr %22) #11
  call void @llvm.lifetime.start.p0(i64 24, ptr %23) #11
  call void @llvm.lifetime.start.p0(i64 24, ptr %24) #11
  call void @llvm.lifetime.start.p0(i64 24, ptr %25) #11
  call void @llvm.lifetime.start.p0(i64 24, ptr %26) #11
  call void @llvm.lifetime.start.p0(i64 8, ptr %27) #11
  call void @llvm.lifetime.start.p0(i64 4, ptr %28) #11
  call void @llvm.lifetime.start.p0(i64 4, ptr %29) #11
  call void @llvm.lifetime.start.p0(i64 4, ptr %30) #11
  call void @llvm.lifetime.start.p0(i64 4, ptr %31) #11
  store i32 0, ptr %31, align 4
  %34 = load i32, ptr %14, align 4
  %35 = getelementptr inbounds [6 x i32], ptr %23, i64 0, i64 0
  %36 = load ptr, ptr %17, align 8
  %37 = load ptr, ptr %18, align 8
  call void @mda_get_range(i32 noundef %34, ptr noundef %35, ptr noundef %36, ptr noundef %37)
  %38 = load i32, ptr %19, align 4
  %39 = icmp sgt i32 %38, 0
  br i1 %39, label %40, label %85

40:                                               ; preds = %10
  %41 = load ptr, ptr %13, align 8
  %42 = icmp ne ptr %41, null
  br i1 %42, label %85, label %43

43:                                               ; preds = %40
  %44 = load i32, ptr %14, align 4
  %45 = getelementptr inbounds [6 x i32], ptr %23, i64 0, i64 0
  %46 = call i32 @ArrayGetNItems(i32 noundef %44, ptr noundef %45)
  %47 = sext i32 %46 to i64
  %48 = load i8, ptr %21, align 1
  %49 = sext i8 %48 to i32
  %50 = icmp eq i32 %49, 105
  br i1 %50, label %51, label %56

51:                                               ; preds = %43
  %52 = load i32, ptr %19, align 4
  %53 = sext i32 %52 to i64
  %54 = add i64 %53, 3
  %55 = and i64 %54, -4
  br label %81

56:                                               ; preds = %43
  %57 = load i8, ptr %21, align 1
  %58 = sext i8 %57 to i32
  %59 = icmp eq i32 %58, 99
  br i1 %59, label %60, label %63

60:                                               ; preds = %56
  %61 = load i32, ptr %19, align 4
  %62 = sext i32 %61 to i64
  br label %79

63:                                               ; preds = %56
  %64 = load i8, ptr %21, align 1
  %65 = sext i8 %64 to i32
  %66 = icmp eq i32 %65, 100
  br i1 %66, label %67, label %72

67:                                               ; preds = %63
  %68 = load i32, ptr %19, align 4
  %69 = sext i32 %68 to i64
  %70 = add i64 %69, 7
  %71 = and i64 %70, -8
  br label %77

72:                                               ; preds = %63
  %73 = load i32, ptr %19, align 4
  %74 = sext i32 %73 to i64
  %75 = add i64 %74, 1
  %76 = and i64 %75, -2
  br label %77

77:                                               ; preds = %72, %67
  %78 = phi i64 [ %71, %67 ], [ %76, %72 ]
  br label %79

79:                                               ; preds = %77, %60
  %80 = phi i64 [ %62, %60 ], [ %78, %77 ]
  br label %81

81:                                               ; preds = %79, %51
  %82 = phi i64 [ %55, %51 ], [ %80, %79 ]
  %83 = mul i64 %47, %82
  %84 = trunc i64 %83 to i32
  store i32 %84, ptr %11, align 4
  store i32 1, ptr %32, align 4
  br label %282

85:                                               ; preds = %40, %10
  %86 = load i32, ptr %14, align 4
  %87 = load ptr, ptr %15, align 8
  %88 = load ptr, ptr %16, align 8
  %89 = load ptr, ptr %17, align 8
  %90 = call i32 @ArrayGetOffset(i32 noundef %86, ptr noundef %87, ptr noundef %88, ptr noundef %89)
  store i32 %90, ptr %22, align 4
  %91 = load ptr, ptr %12, align 8
  %92 = load ptr, ptr %13, align 8
  %93 = load i32, ptr %22, align 4
  %94 = load i32, ptr %19, align 4
  %95 = load i8, ptr %20, align 1, !range !4, !noundef !5
  %96 = trunc i8 %95 to i1
  %97 = load i8, ptr %21, align 1
  %98 = call ptr @array_seek(ptr noundef %91, i32 noundef 0, ptr noundef %92, i32 noundef %93, i32 noundef %94, i1 noundef zeroext %96, i8 noundef signext %97)
  store ptr %98, ptr %27, align 8
  %99 = load i32, ptr %14, align 4
  %100 = load ptr, ptr %15, align 8
  %101 = getelementptr inbounds [6 x i32], ptr %24, i64 0, i64 0
  call void @mda_get_prod(i32 noundef %99, ptr noundef %100, ptr noundef %101)
  %102 = load i32, ptr %14, align 4
  %103 = getelementptr inbounds [6 x i32], ptr %25, i64 0, i64 0
  %104 = getelementptr inbounds [6 x i32], ptr %24, i64 0, i64 0
  %105 = getelementptr inbounds [6 x i32], ptr %23, i64 0, i64 0
  call void @mda_get_offset_values(i32 noundef %102, ptr noundef %103, ptr noundef %104, ptr noundef %105)
  store i32 0, ptr %28, align 4
  br label %106

106:                                              ; preds = %114, %85
  %107 = load i32, ptr %28, align 4
  %108 = load i32, ptr %14, align 4
  %109 = icmp slt i32 %107, %108
  br i1 %109, label %110, label %117

110:                                              ; preds = %106
  %111 = load i32, ptr %28, align 4
  %112 = sext i32 %111 to i64
  %113 = getelementptr inbounds [6 x i32], ptr %26, i64 0, i64 %112
  store i32 0, ptr %113, align 4
  br label %114

114:                                              ; preds = %110
  %115 = load i32, ptr %28, align 4
  %116 = add i32 %115, 1
  store i32 %116, ptr %28, align 4
  br label %106, !llvm.loop !37

117:                                              ; preds = %106
  %118 = load i32, ptr %14, align 4
  %119 = sub i32 %118, 1
  store i32 %119, ptr %29, align 4
  br label %120

120:                                              ; preds = %274, %117
  %121 = load i32, ptr %29, align 4
  %122 = sext i32 %121 to i64
  %123 = getelementptr inbounds [6 x i32], ptr %25, i64 0, i64 %122
  %124 = load i32, ptr %123, align 4
  %125 = icmp ne i32 %124, 0
  br i1 %125, label %126, label %145

126:                                              ; preds = %120
  %127 = load ptr, ptr %27, align 8
  %128 = load i32, ptr %22, align 4
  %129 = load ptr, ptr %13, align 8
  %130 = load i32, ptr %29, align 4
  %131 = sext i32 %130 to i64
  %132 = getelementptr inbounds [6 x i32], ptr %25, i64 0, i64 %131
  %133 = load i32, ptr %132, align 4
  %134 = load i32, ptr %19, align 4
  %135 = load i8, ptr %20, align 1, !range !4, !noundef !5
  %136 = trunc i8 %135 to i1
  %137 = load i8, ptr %21, align 1
  %138 = call ptr @array_seek(ptr noundef %127, i32 noundef %128, ptr noundef %129, i32 noundef %133, i32 noundef %134, i1 noundef zeroext %136, i8 noundef signext %137)
  store ptr %138, ptr %27, align 8
  %139 = load i32, ptr %29, align 4
  %140 = sext i32 %139 to i64
  %141 = getelementptr inbounds [6 x i32], ptr %25, i64 0, i64 %140
  %142 = load i32, ptr %141, align 4
  %143 = load i32, ptr %22, align 4
  %144 = add i32 %143, %142
  store i32 %144, ptr %22, align 4
  br label %145

145:                                              ; preds = %126, %120
  %146 = load ptr, ptr %13, align 8
  %147 = load i32, ptr %22, align 4
  %148 = call zeroext i1 @array_get_isnull(ptr noundef %146, i32 noundef %147)
  br i1 %148, label %271, label %149

149:                                              ; preds = %145
  %150 = load i32, ptr %19, align 4
  %151 = icmp sgt i32 %150, 0
  br i1 %151, label %152, label %156

152:                                              ; preds = %149
  %153 = load i32, ptr %19, align 4
  %154 = add i32 0, %153
  %155 = sext i32 %154 to i64
  br label %225

156:                                              ; preds = %149
  %157 = load i32, ptr %19, align 4
  %158 = icmp eq i32 %157, -1
  br i1 %158, label %159, label %218

159:                                              ; preds = %156
  %160 = load ptr, ptr %27, align 8
  %161 = getelementptr inbounds nuw %struct.varattrib_1b, ptr %160, i32 0, i32 0
  %162 = load i8, ptr %161, align 1
  %163 = zext i8 %162 to i32
  %164 = icmp eq i32 %163, 1
  br i1 %164, label %165, label %192

165:                                              ; preds = %159
  %166 = load ptr, ptr %27, align 8
  %167 = getelementptr inbounds nuw %struct.varattrib_1b_e, ptr %166, i32 0, i32 1
  %168 = load i8, ptr %167, align 1
  %169 = zext i8 %168 to i32
  %170 = icmp eq i32 %169, 1
  br i1 %170, label %171, label %172

171:                                              ; preds = %165
  br label %189

172:                                              ; preds = %165
  %173 = load ptr, ptr %27, align 8
  %174 = getelementptr inbounds nuw %struct.varattrib_1b_e, ptr %173, i32 0, i32 1
  %175 = load i8, ptr %174, align 1
  %176 = zext i8 %175 to i32
  %177 = and i32 %176, -2
  %178 = icmp eq i32 %177, 2
  br i1 %178, label %179, label %180

179:                                              ; preds = %172
  br label %187

180:                                              ; preds = %172
  %181 = load ptr, ptr %27, align 8
  %182 = getelementptr inbounds nuw %struct.varattrib_1b_e, ptr %181, i32 0, i32 1
  %183 = load i8, ptr %182, align 1
  %184 = zext i8 %183 to i32
  %185 = icmp eq i32 %184, 18
  %186 = select i1 %185, i64 16, i64 0
  br label %187

187:                                              ; preds = %180, %179
  %188 = phi i64 [ 8, %179 ], [ %186, %180 ]
  br label %189

189:                                              ; preds = %187, %171
  %190 = phi i64 [ 8, %171 ], [ %188, %187 ]
  %191 = add i64 2, %190
  br label %215

192:                                              ; preds = %159
  %193 = load ptr, ptr %27, align 8
  %194 = getelementptr inbounds nuw %struct.varattrib_1b, ptr %193, i32 0, i32 0
  %195 = load i8, ptr %194, align 1
  %196 = zext i8 %195 to i32
  %197 = and i32 %196, 1
  %198 = icmp eq i32 %197, 1
  br i1 %198, label %199, label %206

199:                                              ; preds = %192
  %200 = load ptr, ptr %27, align 8
  %201 = getelementptr inbounds nuw %struct.varattrib_1b, ptr %200, i32 0, i32 0
  %202 = load i8, ptr %201, align 1
  %203 = zext i8 %202 to i32
  %204 = ashr i32 %203, 1
  %205 = and i32 %204, 127
  br label %212

206:                                              ; preds = %192
  %207 = load ptr, ptr %27, align 8
  %208 = getelementptr inbounds nuw %struct.anon, ptr %207, i32 0, i32 0
  %209 = load i32, ptr %208, align 4
  %210 = lshr i32 %209, 2
  %211 = and i32 %210, 1073741823
  br label %212

212:                                              ; preds = %206, %199
  %213 = phi i32 [ %205, %199 ], [ %211, %206 ]
  %214 = zext i32 %213 to i64
  br label %215

215:                                              ; preds = %212, %189
  %216 = phi i64 [ %191, %189 ], [ %214, %212 ]
  %217 = add i64 0, %216
  br label %223

218:                                              ; preds = %156
  %219 = load ptr, ptr %27, align 8
  %220 = call i64 @strlen(ptr noundef %219) #12
  %221 = add i64 %220, 1
  %222 = add i64 0, %221
  br label %223

223:                                              ; preds = %218, %215
  %224 = phi i64 [ %217, %215 ], [ %222, %218 ]
  br label %225

225:                                              ; preds = %223, %152
  %226 = phi i64 [ %155, %152 ], [ %224, %223 ]
  %227 = trunc i64 %226 to i32
  store i32 %227, ptr %30, align 4
  %228 = load i8, ptr %21, align 1
  %229 = sext i8 %228 to i32
  %230 = icmp eq i32 %229, 105
  br i1 %230, label %231, label %236

231:                                              ; preds = %225
  %232 = load i32, ptr %30, align 4
  %233 = sext i32 %232 to i64
  %234 = add i64 %233, 3
  %235 = and i64 %234, -4
  br label %261

236:                                              ; preds = %225
  %237 = load i8, ptr %21, align 1
  %238 = sext i8 %237 to i32
  %239 = icmp eq i32 %238, 99
  br i1 %239, label %240, label %243

240:                                              ; preds = %236
  %241 = load i32, ptr %30, align 4
  %242 = sext i32 %241 to i64
  br label %259

243:                                              ; preds = %236
  %244 = load i8, ptr %21, align 1
  %245 = sext i8 %244 to i32
  %246 = icmp eq i32 %245, 100
  br i1 %246, label %247, label %252

247:                                              ; preds = %243
  %248 = load i32, ptr %30, align 4
  %249 = sext i32 %248 to i64
  %250 = add i64 %249, 7
  %251 = and i64 %250, -8
  br label %257

252:                                              ; preds = %243
  %253 = load i32, ptr %30, align 4
  %254 = sext i32 %253 to i64
  %255 = add i64 %254, 1
  %256 = and i64 %255, -2
  br label %257

257:                                              ; preds = %252, %247
  %258 = phi i64 [ %251, %247 ], [ %256, %252 ]
  br label %259

259:                                              ; preds = %257, %240
  %260 = phi i64 [ %242, %240 ], [ %258, %257 ]
  br label %261

261:                                              ; preds = %259, %231
  %262 = phi i64 [ %235, %231 ], [ %260, %259 ]
  %263 = trunc i64 %262 to i32
  store i32 %263, ptr %30, align 4
  %264 = load i32, ptr %30, align 4
  %265 = load ptr, ptr %27, align 8
  %266 = sext i32 %264 to i64
  %267 = getelementptr inbounds i8, ptr %265, i64 %266
  store ptr %267, ptr %27, align 8
  %268 = load i32, ptr %30, align 4
  %269 = load i32, ptr %31, align 4
  %270 = add i32 %269, %268
  store i32 %270, ptr %31, align 4
  br label %271

271:                                              ; preds = %261, %145
  %272 = load i32, ptr %22, align 4
  %273 = add i32 %272, 1
  store i32 %273, ptr %22, align 4
  br label %274

274:                                              ; preds = %271
  %275 = load i32, ptr %14, align 4
  %276 = getelementptr inbounds [6 x i32], ptr %26, i64 0, i64 0
  %277 = getelementptr inbounds [6 x i32], ptr %23, i64 0, i64 0
  %278 = call i32 @mda_next_tuple(i32 noundef %275, ptr noundef %276, ptr noundef %277)
  store i32 %278, ptr %29, align 4
  %279 = icmp ne i32 %278, -1
  br i1 %279, label %120, label %280, !llvm.loop !38

280:                                              ; preds = %274
  %281 = load i32, ptr %31, align 4
  store i32 %281, ptr %11, align 4
  store i32 1, ptr %32, align 4
  br label %282

282:                                              ; preds = %280, %81
  call void @llvm.lifetime.end.p0(i64 4, ptr %31) #11
  call void @llvm.lifetime.end.p0(i64 4, ptr %30) #11
  call void @llvm.lifetime.end.p0(i64 4, ptr %29) #11
  call void @llvm.lifetime.end.p0(i64 4, ptr %28) #11
  call void @llvm.lifetime.end.p0(i64 8, ptr %27) #11
  call void @llvm.lifetime.end.p0(i64 24, ptr %26) #11
  call void @llvm.lifetime.end.p0(i64 24, ptr %25) #11
  call void @llvm.lifetime.end.p0(i64 24, ptr %24) #11
  call void @llvm.lifetime.end.p0(i64 24, ptr %23) #11
  call void @llvm.lifetime.end.p0(i64 4, ptr %22) #11
  %283 = load i32, ptr %11, align 4
  ret i32 %283
}