; Function Attrs: nounwind uwtable
define internal fastcc i32 @array_slice_size(ptr noundef readonly %0, ptr noundef readonly captures(address_is_null) %1, i32 noundef range(i32 1, 7) %2, ptr noundef %3, ptr noundef %4, ptr noundef %5, ptr noundef %6, i32 noundef %7, i8 noundef signext %8) unnamed_addr #0 {
  %10 = alloca [6 x i32], align 16
  %11 = alloca [6 x i32], align 16
  %12 = alloca [6 x i32], align 16
  %13 = alloca [6 x i32], align 16
  call void @llvm.lifetime.start.p0(i64 24, ptr nonnull %10) #18
  call void @llvm.lifetime.start.p0(i64 24, ptr nonnull %11) #18
  call void @llvm.lifetime.start.p0(i64 24, ptr nonnull %12) #18
  call void @llvm.lifetime.start.p0(i64 24, ptr nonnull %13) #18
  call void @mda_get_range(i32 noundef %2, ptr noundef nonnull %10, ptr noundef %5, ptr noundef %6) #18
  %14 = icmp slt i32 %7, 1
  %15 = icmp ne ptr %1, null
  %or.cond = or i1 %15, %14
  br i1 %or.cond, label %26, label %16

16:                                               ; preds = %9
  %17 = call i32 @ArrayGetNItems(i32 noundef %2, ptr noundef nonnull %10) #18
  switch i8 %8, label %22 [
    i8 105, label %18
    i8 99, label %24
    i8 100, label %20
  ]

18:                                               ; preds = %16
  %narrow87 = add nuw i32 %7, 3
  %19 = and i32 %narrow87, -4
  br label %24

20:                                               ; preds = %16
  %narrow86 = add nuw i32 %7, 7
  %21 = and i32 %narrow86, -8
  br label %24

22:                                               ; preds = %16
  %narrow = add nuw i32 %7, 1
  %23 = and i32 %narrow, -2
  br label %24

24:                                               ; preds = %16, %22, %20, %18
  %.in = phi i32 [ %19, %18 ], [ %21, %20 ], [ %23, %22 ], [ %7, %16 ]
  %25 = mul i32 %.in, %17
  br label %.loopexit

26:                                               ; preds = %9
  %27 = call i32 @ArrayGetOffset(i32 noundef %2, ptr noundef %3, ptr noundef %4, ptr noundef %5) #18
  %28 = call fastcc ptr @array_seek(ptr noundef %0, i32 noundef 0, ptr noundef %1, i32 noundef %27, i32 noundef %7, i8 noundef signext %8)
  call void @mda_get_prod(i32 noundef %2, ptr noundef %3, ptr noundef nonnull %11) #18
  call void @mda_get_offset_values(i32 noundef %2, ptr noundef nonnull %12, ptr noundef nonnull %11, ptr noundef nonnull %10) #18
  %29 = shl nuw nsw i32 %2, 2
  %30 = zext nneg i32 %29 to i64
  call void @llvm.memset.p0.i64(ptr noundef nonnull align 16 dereferenceable(1) %13, i8 0, i64 %30, i1 false)
  %31 = add nsw i32 %2, -1
  %32 = icmp eq ptr %1, null
  %33 = icmp sgt i32 %7, 0
  %34 = icmp eq i32 %7, -1
  %35 = zext nneg i32 %7 to i64
  br label %36

36:                                               ; preds = %97, %26
  %.073 = phi i32 [ %27, %26 ], [ %98, %97 ]
  %.071 = phi ptr [ %28, %26 ], [ %.2, %97 ]
  %.069 = phi i32 [ %31, %26 ], [ %99, %97 ]
  %.0 = phi i32 [ 0, %26 ], [ %.1, %97 ]
  %37 = sext i32 %.069 to i64
  %38 = getelementptr inbounds [6 x i32], ptr %12, i64 0, i64 %37
  %39 = load i32, ptr %38, align 4
  %.not = icmp eq i32 %39, 0
  br i1 %.not, label %43, label %40

40:                                               ; preds = %36
  %41 = call fastcc ptr @array_seek(ptr noundef %.071, i32 noundef %.073, ptr noundef %1, i32 noundef %39, i32 noundef %7, i8 noundef signext %8)
  %42 = add i32 %39, %.073
  br label %43

43:                                               ; preds = %40, %36
  %.174 = phi i32 [ %42, %40 ], [ %.073, %36 ]
  %.172 = phi ptr [ %41, %40 ], [ %.071, %36 ]
  br i1 %32, label %array_get_isnull.exit.thread, label %array_get_isnull.exit

array_get_isnull.exit:                            ; preds = %43
  %44 = sdiv i32 %.174, 8
  %45 = sext i32 %44 to i64
  %46 = getelementptr inbounds i8, ptr %1, i64 %45
  %47 = load i8, ptr %46, align 1
  %48 = zext i8 %47 to i32
  %49 = and i32 %.174, 7
  %50 = shl nuw nsw i32 1, %49
  %51 = and i32 %50, %48
  %.not.i = icmp eq i32 %51, 0
  br i1 %.not.i, label %97, label %array_get_isnull.exit.thread

array_get_isnull.exit.thread:                     ; preds = %43, %array_get_isnull.exit
  br i1 %33, label %79, label %52

52:                                               ; preds = %array_get_isnull.exit.thread
  br i1 %34, label %53, label %76

53:                                               ; preds = %52
  %54 = load i8, ptr %.172, align 1
  %55 = zext i8 %54 to i32
  %56 = icmp eq i8 %54, 1
  br i1 %56, label %57, label %66

57:                                               ; preds = %53
  %58 = getelementptr inbounds nuw i8, ptr %.172, i64 1
  %59 = load i8, ptr %58, align 1
  %60 = icmp eq i8 %59, 1
  %61 = and i8 %59, -2
  %62 = icmp eq i8 %61, 2
  %or.cond95 = or i1 %60, %62
  %63 = icmp eq i8 %59, 18
  %64 = select i1 %63, i64 18, i64 2
  %65 = select i1 %or.cond95, i64 10, i64 %64
  br label %79

66:                                               ; preds = %53
  %67 = and i32 %55, 1
  %.not88 = icmp eq i32 %67, 0
  br i1 %.not88, label %70, label %68

68:                                               ; preds = %66
  %69 = lshr i32 %55, 1
  br label %73

70:                                               ; preds = %66
  %71 = load i32, ptr %.172, align 4
  %72 = lshr i32 %71, 2
  br label %73

73:                                               ; preds = %70, %68
  %74 = phi i32 [ %69, %68 ], [ %72, %70 ]
  %75 = zext nneg i32 %74 to i64
  br label %79

76:                                               ; preds = %52
  %77 = call i64 @strlen(ptr noundef nonnull dereferenceable(1) %.172) #19
  %78 = add i64 %77, 1
  br label %79

79:                                               ; preds = %array_get_isnull.exit.thread, %57, %73, %76
  %80 = phi i64 [ %78, %76 ], [ %65, %57 ], [ %75, %73 ], [ %35, %array_get_isnull.exit.thread ]
  %sext = shl i64 %80, 32
  %81 = ashr exact i64 %sext, 32
  switch i8 %8, label %88 [
    i8 105, label %82
    i8 99, label %91
    i8 100, label %85
  ]

82:                                               ; preds = %79
  %83 = add nsw i64 %81, 3
  %84 = and i64 %83, -4
  br label %91

85:                                               ; preds = %79
  %86 = add nsw i64 %81, 7
  %87 = and i64 %86, -8
  br label %91

88:                                               ; preds = %79
  %89 = add nsw i64 %81, 1
  %90 = and i64 %89, -2
  br label %91

91:                                               ; preds = %79, %88, %85, %82
  %92 = phi i64 [ %84, %82 ], [ %87, %85 ], [ %90, %88 ], [ %81, %79 ]
  %93 = trunc i64 %92 to i32
  %sext92 = shl i64 %92, 32
  %94 = ashr exact i64 %sext92, 32
  %95 = getelementptr inbounds i8, ptr %.172, i64 %94
  %96 = add i32 %.0, %93
  br label %97

97:                                               ; preds = %91, %array_get_isnull.exit
  %.2 = phi ptr [ %.172, %array_get_isnull.exit ], [ %95, %91 ]
  %.1 = phi i32 [ %.0, %array_get_isnull.exit ], [ %96, %91 ]
  %98 = add i32 %.174, 1
  %99 = call i32 @mda_next_tuple(i32 noundef %2, ptr noundef nonnull %13, ptr noundef nonnull %10) #18
  %.not93 = icmp eq i32 %99, -1
  br i1 %.not93, label %.loopexit, label %36, !llvm.loop !59

.loopexit:                                        ; preds = %97, %24
  %.075 = phi i32 [ %25, %24 ], [ %.1, %97 ]
  call void @llvm.lifetime.end.p0(i64 24, ptr nonnull %13) #18
  call void @llvm.lifetime.end.p0(i64 24, ptr nonnull %12) #18
  call void @llvm.lifetime.end.p0(i64 24, ptr nonnull %11) #18
  call void @llvm.lifetime.end.p0(i64 24, ptr nonnull %10) #18
  ret i32 %.075
}